target datalayout = "e-m:e-p270:32:32-p271:32:32-p272:64:64-i64:64-i128:128-f80:128-n8:16:32:64-S128"
target triple = "x86_64-pc-linux-gnu"

@rb_eArgError = external global i64, align 8
@.str.221 = private unnamed_addr constant [26 x i8] c"can't find group for %li\0B\00", align 1

; Function Attrs: nounwind sspstrong uwtable
define internal i64 @etc_getgrnam(i64 noundef %0, i64 noundef %1) #0 {
  %3 = alloca i64, align 8
  %4 = alloca i64, align 8
  %5 = alloca ptr, align 8
  %6 = alloca ptr, align 8
  store i64 %0, ptr %3, align 8, !tbaa !6
  store i64 %1, ptr %4, align 8, !tbaa !6
  call void @llvm.lifetime.start.p0(i64 8, ptr %5) #19
  call void @llvm.lifetime.start.p0(i64 8, ptr %6) #19
  %7 = call ptr @rb_string_value_cstr(ptr noundef %4)
  store ptr %7, ptr %6, align 8, !tbaa !10
  %8 = load ptr, ptr %6, align 8, !tbaa !10
  %9 = call ptr @getgrnam(ptr noundef %8)
  store ptr %9, ptr %5, align 8, !tbaa !21
  %10 = load ptr, ptr %5, align 8, !tbaa !21
  %11 = icmp eq ptr %10, null
  br i1 %11, label %12, label %15

12:                                               ; preds = %2
  %13 = load i64, ptr @rb_eArgError, align 8, !tbaa !6
  %14 = load i64, ptr %4, align 8, !tbaa !6
  call void (i64, ptr, ...) @rb_raise(i64 noundef %13, ptr noundef @.str.221, i64 noundef %14) #22
  unreachable

15:                                               ; preds = %2
  %16 = load ptr, ptr %5, align 8, !tbaa !21
  %17 = call i64 @setup_group(ptr noundef %16)
  call void @llvm.lifetime.end.p0(i64 8, ptr %6) #19
  call void @llvm.lifetime.end.p0(i64 8, ptr %5) #19
  ret i64 %17
}