; Function Attrs: nounwind sspstrong uwtable
define internal i64 @etc_getgrnam(i64 %0, i64 noundef %1) #0 {
  %3 = alloca i64, align 8
  store i64 %1, ptr %3, align 8, !tbaa !6
  %4 = call ptr @rb_string_value_cstr(ptr noundef nonnull %3) #13
  %5 = call ptr @getgrnam(ptr noundef %4) #13
  %6 = icmp eq ptr %5, null
  br i1 %6, label %7, label %10

7:                                                ; preds = %2
  %8 = load i64, ptr @rb_eArgError, align 8, !tbaa !6
  %9 = load i64, ptr %3, align 8, !tbaa !6
  call void (i64, ptr, ...) @rb_raise(i64 noundef %8, ptr noundef nonnull @.str.221, i64 noundef %9) #15
  unreachable

10:                                               ; preds = %2
  %11 = call fastcc i64 @setup_group(ptr noundef %5)
  ret i64 %11
}